target datalayout = "e-m:e-p270:32:32-p271:32:32-p272:64:64-i64:64-i128:128-f80:128-n8:16:32:64-S128"
target triple = "x86_64-pc-linux-gnu"

%"class.llvm::SmallVectorBase" = type { ptr, i32, i32 }
%"class.llvm::SDValue" = type <{ ptr, i32, [4 x i8] }>
%"class.llvm::SDNode" = type { %"class.llvm::FoldingSetBase::Node", %"class.llvm::ilist_node", i32, %"struct.llvm::SDNodeFlags", %union.anon, i16, i32, ptr, ptr, ptr, i16, i16, i32, %"class.llvm::DebugLoc", i32, i32 }
%"class.llvm::FoldingSetBase::Node" = type { ptr }
%"class.llvm::ilist_node" = type { %"class.llvm::ilist_node_impl" }
%"class.llvm::ilist_node_impl" = type { %"class.llvm::ilist_node_base" }
%"class.llvm::ilist_node_base" = type { %"class.llvm::ilist_detail::node_base_prevnext" }
%"class.llvm::ilist_detail::node_base_prevnext" = type { ptr, ptr }
%"struct.llvm::SDNodeFlags" = type { i16 }
%union.anon = type { %"class.llvm::SDNode::LSBaseSDNodeBitfields" }
%"class.llvm::SDNode::LSBaseSDNodeBitfields" = type { i16 }
%"class.llvm::DebugLoc" = type { %"class.llvm::TypedTrackingMDRef" }
%"class.llvm::TypedTrackingMDRef" = type { %"class.llvm::TrackingMDRef" }
%"class.llvm::TrackingMDRef" = type { ptr }
%"class.llvm::SelectionDAG" = type { ptr, ptr, ptr, ptr, ptr, ptr, ptr, ptr, ptr, i32, ptr, ptr, ptr, ptr, ptr, ptr, %"class.llvm::FoldingSet", %"class.llvm::BumpPtrAllocatorImpl", %"class.llvm::SDNode", %"class.llvm::SDValue", %"class.llvm::iplist", %"class.llvm::RecyclingAllocator", %"class.llvm::FoldingSet.27", %"class.llvm::BumpPtrAllocatorImpl", %"class.llvm::ArrayRecycler", ptr, %"class.llvm::DenseMap", i16, i8, ptr, %"class.std::vector", %"class.std::vector.35", %"class.std::map", %"class.llvm::StringMap", %"class.std::map.43", %"class.llvm::DenseMap.49", ptr }
%"class.llvm::FoldingSet" = type { %"class.llvm::FoldingSetImpl" }
%"class.llvm::FoldingSetImpl" = type { %"class.llvm::FoldingSetBase" }
%"class.llvm::FoldingSetBase" = type { ptr, i32, i32 }
%"class.llvm::iplist" = type { %"class.llvm::iplist_impl" }
%"class.llvm::iplist_impl" = type { %"class.llvm::simple_ilist" }
%"class.llvm::simple_ilist" = type { %"class.llvm::ilist_sentinel" }
%"class.llvm::ilist_sentinel" = type { %"class.llvm::ilist_node_impl" }
%"class.llvm::RecyclingAllocator" = type { %"class.llvm::Recycler", %"class.llvm::BumpPtrAllocatorImpl" }
%"class.llvm::Recycler" = type { ptr }
%"class.llvm::FoldingSet.27" = type { %"class.llvm::FoldingSetImpl.28" }
%"class.llvm::FoldingSetImpl.28" = type { %"class.llvm::FoldingSetBase" }
%"class.llvm::BumpPtrAllocatorImpl" = type { ptr, ptr, %"class.llvm::SmallVector.17", %"class.llvm::SmallVector.22", i64, i64 }
%"class.llvm::SmallVector.17" = type { %"class.llvm::SmallVectorImpl.18", %"struct.llvm::SmallVectorStorage.21" }
%"class.llvm::SmallVectorImpl.18" = type { %"class.llvm::SmallVectorTemplateBase.19" }
%"class.llvm::SmallVectorTemplateBase.19" = type { %"class.llvm::SmallVectorTemplateCommon.20" }
%"class.llvm::SmallVectorTemplateCommon.20" = type { %"class.llvm::SmallVectorBase" }
%"struct.llvm::SmallVectorStorage.21" = type { [32 x i8] }
%"class.llvm::SmallVector.22" = type { %"class.llvm::SmallVectorImpl.23" }
%"class.llvm::SmallVectorImpl.23" = type { %"class.llvm::SmallVectorTemplateBase.24" }
%"class.llvm::SmallVectorTemplateBase.24" = type { %"class.llvm::SmallVectorTemplateCommon.25" }
%"class.llvm::SmallVectorTemplateCommon.25" = type { %"class.llvm::SmallVectorBase" }
%"class.llvm::ArrayRecycler" = type { %"class.llvm::SmallVector.29" }
%"class.llvm::SmallVector.29" = type { %"class.llvm::SmallVectorImpl.30", %"struct.llvm::SmallVectorStorage.33" }
%"class.llvm::SmallVectorImpl.30" = type { %"class.llvm::SmallVectorTemplateBase.31" }
%"class.llvm::SmallVectorTemplateBase.31" = type { %"class.llvm::SmallVectorTemplateCommon.32" }
%"class.llvm::SmallVectorTemplateCommon.32" = type { %"class.llvm::SmallVectorBase" }
%"struct.llvm::SmallVectorStorage.33" = type { [64 x i8] }
%"class.llvm::DenseMap" = type <{ ptr, i32, i32, i32, [4 x i8] }>
%"class.std::vector" = type { %"struct.std::_Vector_base" }
%"struct.std::_Vector_base" = type { %"struct.std::_Vector_base<llvm::CondCodeSDNode *, std::allocator<llvm::CondCodeSDNode *>>::_Vector_impl" }
%"struct.std::_Vector_base<llvm::CondCodeSDNode *, std::allocator<llvm::CondCodeSDNode *>>::_Vector_impl" = type { %"struct.std::_Vector_base<llvm::CondCodeSDNode *, std::allocator<llvm::CondCodeSDNode *>>::_Vector_impl_data" }
%"struct.std::_Vector_base<llvm::CondCodeSDNode *, std::allocator<llvm::CondCodeSDNode *>>::_Vector_impl_data" = type { ptr, ptr, ptr }
%"class.std::vector.35" = type { %"struct.std::_Vector_base.36" }
%"struct.std::_Vector_base.36" = type { %"struct.std::_Vector_base<llvm::SDNode *, std::allocator<llvm::SDNode *>>::_Vector_impl" }
%"struct.std::_Vector_base<llvm::SDNode *, std::allocator<llvm::SDNode *>>::_Vector_impl" = type { %"struct.std::_Vector_base<llvm::SDNode *, std::allocator<llvm::SDNode *>>::_Vector_impl_data" }
%"struct.std::_Vector_base<llvm::SDNode *, std::allocator<llvm::SDNode *>>::_Vector_impl_data" = type { ptr, ptr, ptr }
%"class.std::map" = type { %"class.std::_Rb_tree" }
%"class.std::_Rb_tree" = type { %"struct.std::_Rb_tree<llvm::EVT, std::pair<const llvm::EVT, llvm::SDNode *>, std::_Select1st<std::pair<const llvm::EVT, llvm::SDNode *>>, llvm::EVT::compareRawBits>::_Rb_tree_impl" }
%"struct.std::_Rb_tree<llvm::EVT, std::pair<const llvm::EVT, llvm::SDNode *>, std::_Select1st<std::pair<const llvm::EVT, llvm::SDNode *>>, llvm::EVT::compareRawBits>::_Rb_tree_impl" = type { [8 x i8], %"struct.std::_Rb_tree_header" }
%"struct.std::_Rb_tree_header" = type { %"struct.std::_Rb_tree_node_base", i64 }
%"struct.std::_Rb_tree_node_base" = type { i32, ptr, ptr, ptr }
%"class.llvm::StringMap" = type { %"class.llvm::StringMapImpl" }
%"class.llvm::StringMapImpl" = type { ptr, i32, i32, i32, i32 }
%"class.std::map.43" = type { %"class.std::_Rb_tree.44" }
%"class.std::_Rb_tree.44" = type { %"struct.std::_Rb_tree<std::pair<std::__cxx11::basic_string<char>, unsigned int>, std::pair<const std::pair<std::__cxx11::basic_string<char>, unsigned int>, llvm::SDNode *>, std::_Select1st<std::pair<const std::pair<std::__cxx11::basic_string<char>, unsigned int>, llvm::SDNode *>>, std::less<std::pair<std::__cxx11::basic_string<char>, unsigned int>>>::_Rb_tree_impl" }
%"struct.std::_Rb_tree<std::pair<std::__cxx11::basic_string<char>, unsigned int>, std::pair<const std::pair<std::__cxx11::basic_string<char>, unsigned int>, llvm::SDNode *>, std::_Select1st<std::pair<const std::pair<std::__cxx11::basic_string<char>, unsigned int>, llvm::SDNode *>>, std::less<std::pair<std::__cxx11::basic_string<char>, unsigned int>>>::_Rb_tree_impl" = type { [8 x i8], %"struct.std::_Rb_tree_header" }
%"class.llvm::DenseMap.49" = type <{ ptr, i32, i32, i32, [4 x i8] }>
%"struct.llvm::SelectionDAG::DAGUpdateListener" = type { ptr, ptr, ptr }

@_ZTVN4llvm12SelectionDAG17DAGUpdateListenerE = external unnamed_addr constant { [7 x ptr] }, align 8

; Function Attrs: mustprogress nounwind uwtable
define linkonce_odr hidden void @_ZN4llvm12SelectionDAG17DAGUpdateListenerD2Ev(ptr noundef nonnull align 8 dereferenceable(24) %0) unnamed_addr #1 comdat align 2 {
  %2 = alloca ptr, align 8
  store ptr %0, ptr %2, align 8
  %3 = load ptr, ptr %2, align 8
  store ptr getelementptr inbounds inrange(-16, 40) ({ [7 x ptr] }, ptr @_ZTVN4llvm12SelectionDAG17DAGUpdateListenerE, i32 0, i32 0, i32 2), ptr %3, align 8
  %4 = getelementptr inbounds nuw %"struct.llvm::SelectionDAG::DAGUpdateListener", ptr %3, i32 0, i32 1
  %5 = load ptr, ptr %4, align 8
  %6 = getelementptr inbounds nuw %"struct.llvm::SelectionDAG::DAGUpdateListener", ptr %3, i32 0, i32 2
  %7 = load ptr, ptr %6, align 8
  %8 = getelementptr inbounds nuw %"class.llvm::SelectionDAG", ptr %7, i32 0, i32 29
  store ptr %5, ptr %8, align 8
  ret void
}

; Function Attrs: mustprogress nounwind uwtable
define internal void @_ZN12_GLOBAL__N_118NodeUpdateListenerD2Ev(ptr noundef nonnull align 8 dereferenceable(40) %0) unnamed_addr #1 align 2 {
  %2 = alloca ptr, align 8
  store ptr %0, ptr %2, align 8
  %3 = load ptr, ptr %2, align 8
  call void @_ZN4llvm12SelectionDAG17DAGUpdateListenerD2Ev(ptr noundef nonnull align 8 dereferenceable(24) %3) #2
  ret void
}